; ModuleID = 'source-C-CXX/11/1287.cpp'
source_filename = "source-C-CXX/11/1287.cpp"
target datalayout = "e-m:e-p270:32:32-p271:32:32-p272:64:64-i64:64-f80:128-n8:16:32:64-S128"
target triple = "x86_64-pc-linux-gnu"

%"class.std::ios_base::Init" = type { i8 }
%"class.std::basic_istream" = type { i32 (...)**, i64, %"class.std::basic_ios" }
%"class.std::basic_ios" = type { %"class.std::ios_base", %"class.std::basic_ostream"*, i8, i8, %"class.std::basic_streambuf"*, %"class.std::ctype"*, %"class.std::num_put"*, %"class.std::num_get"* }
%"class.std::ios_base" = type { i32 (...)**, i64, i64, i32, i32, i32, %"struct.std::ios_base::_Callback_list"*, %"struct.std::ios_base::_Words", [8 x %"struct.std::ios_base::_Words"], i32, %"struct.std::ios_base::_Words"*, %"class.std::locale" }
%"struct.std::ios_base::_Callback_list" = type { %"struct.std::ios_base::_Callback_list"*, void (i32, %"class.std::ios_base"*, i32)*, i32, i32 }
%"struct.std::ios_base::_Words" = type { i8*, i64 }
%"class.std::locale" = type { %"class.std::locale::_Impl"* }
%"class.std::locale::_Impl" = type { i32, %"class.std::locale::facet"**, i64, %"class.std::locale::facet"**, i8** }
%"class.std::locale::facet" = type <{ i32 (...)**, i32, [4 x i8] }>
%"class.std::basic_ostream" = type { i32 (...)**, %"class.std::basic_ios" }
%"class.std::basic_streambuf" = type { i32 (...)**, i8*, i8*, i8*, i8*, i8*, i8*, %"class.std::locale" }
%"class.std::ctype" = type <{ %"class.std::locale::facet.base", [4 x i8], %struct.__locale_struct*, i8, [7 x i8], i32*, i32*, i16*, i8, [256 x i8], [256 x i8], i8, [6 x i8] }>
%"class.std::locale::facet.base" = type <{ i32 (...)**, i32 }>
%struct.__locale_struct = type { [13 x %struct.__locale_data*], i16*, i32*, i32*, [13 x i8*] }
%struct.__locale_data = type opaque
%"class.std::num_put" = type { %"class.std::locale::facet.base", [4 x i8] }
%"class.std::num_get" = type { %"class.std::locale::facet.base", [4 x i8] }

@_ZStL8__ioinit = internal global %"class.std::ios_base::Init" zeroinitializer, align 1
@__dso_handle = external hidden global i8
@_ZSt3cin = external global %"class.std::basic_istream", align 8
@_ZSt4cout = external global %"class.std::basic_ostream", align 8
@llvm.global_ctors = appending global [1 x { i32, void ()*, i8* }] [{ i32, void ()*, i8* } { i32 65535, void ()* @_GLOBAL__sub_I_1287.cpp, i8* null }]

declare void @_ZNSt8ios_base4InitC1Ev(%"class.std::ios_base::Init"* nonnull align 1 dereferenceable(1)) unnamed_addr #0

; Function Attrs: nounwind
declare void @_ZNSt8ios_base4InitD1Ev(%"class.std::ios_base::Init"* nonnull align 1 dereferenceable(1)) unnamed_addr #1

; Function Attrs: nofree nounwind
declare i32 @__cxa_atexit(void (i8*)*, i8*, i8*) local_unnamed_addr #2

; Function Attrs: mustprogress norecurse sspstrong uwtable
define dso_local i32 @main() local_unnamed_addr #3 {
  %1 = alloca [20 x i32], align 16
  %2 = alloca i32, align 4
  %3 = bitcast [20 x i32]* %1 to i8*
  call void @llvm.lifetime.start.p0i8(i64 80, i8* nonnull %3) #8
  %4 = bitcast i32* %2 to i8*
  call void @llvm.lifetime.start.p0i8(i64 4, i8* nonnull %4) #8
  %5 = call i32 @_ZNSi4peekEv(%"class.std::basic_istream"* nonnull align 8 dereferenceable(16) @_ZSt3cin)
  %6 = icmp eq i32 %5, 45
  br i1 %6, label %168, label %7

7:                                                ; preds = %0, %162
  %8 = call nonnull align 8 dereferenceable(16) %"class.std::basic_istream"* @_ZNSirsERi(%"class.std::basic_istream"* nonnull align 8 dereferenceable(16) @_ZSt3cin, i32* nonnull align 4 dereferenceable(4) %2)
  %9 = load i32, i32* %2, align 4, !tbaa !5
  %10 = icmp eq i32 %9, 0
  br i1 %10, label %11, label %13

11:                                               ; preds = %7
  %12 = call i32 @_ZNSi3getEv(%"class.std::basic_istream"* nonnull align 8 dereferenceable(16) @_ZSt3cin)
  br label %134

13:                                               ; preds = %7, %13
  %14 = phi i64 [ %16, %13 ], [ 0, %7 ]
  %15 = phi i32 [ %19, %13 ], [ %9, %7 ]
  %16 = add nuw nsw i64 %14, 1
  %17 = getelementptr inbounds [20 x i32], [20 x i32]* %1, i64 0, i64 %16
  store i32 %15, i32* %17, align 4, !tbaa !5
  %18 = call nonnull align 8 dereferenceable(16) %"class.std::basic_istream"* @_ZNSirsERi(%"class.std::basic_istream"* nonnull align 8 dereferenceable(16) @_ZSt3cin, i32* nonnull align 4 dereferenceable(4) %2)
  %19 = load i32, i32* %2, align 4, !tbaa !5
  %20 = icmp eq i32 %19, 0
  br i1 %20, label %21, label %13, !llvm.loop !9

21:                                               ; preds = %13
  %22 = trunc i64 %16 to i32
  %23 = call i32 @_ZNSi3getEv(%"class.std::basic_istream"* nonnull align 8 dereferenceable(16) @_ZSt3cin)
  %24 = icmp eq i32 %22, 0
  br i1 %24, label %134, label %25

25:                                               ; preds = %21
  %26 = add nuw i64 %14, 2
  %27 = and i64 %26, 4294967295
  %28 = add nsw i64 %27, -1
  %29 = add nsw i64 %27, -9
  %30 = lshr i64 %29, 3
  %31 = add nuw nsw i64 %30, 1
  %32 = icmp ult i64 %28, 8
  %33 = and i64 %28, -8
  %34 = or i64 %33, 1
  %35 = and i64 %31, 1
  %36 = icmp ult i64 %29, 8
  %37 = and i64 %31, 4611686018427387902
  %38 = icmp eq i64 %35, 0
  %39 = icmp eq i64 %28, %33
  br label %40

40:                                               ; preds = %25, %130
  %41 = phi i64 [ 1, %25 ], [ %132, %130 ]
  %42 = phi i32 [ 0, %25 ], [ %131, %130 ]
  %43 = getelementptr inbounds [20 x i32], [20 x i32]* %1, i64 0, i64 %41
  %44 = load i32, i32* %43, align 4, !tbaa !5
  br i1 %32, label %116, label %45

45:                                               ; preds = %40
  %46 = insertelement <4 x i32> <i32 poison, i32 0, i32 0, i32 0>, i32 %42, i32 0
  %47 = insertelement <4 x i32> poison, i32 %44, i32 0
  %48 = shufflevector <4 x i32> %47, <4 x i32> poison, <4 x i32> zeroinitializer
  %49 = insertelement <4 x i32> poison, i32 %44, i32 0
  %50 = shufflevector <4 x i32> %49, <4 x i32> poison, <4 x i32> zeroinitializer
  br i1 %36, label %89, label %51

51:                                               ; preds = %45, %51
  %52 = phi i64 [ %86, %51 ], [ 0, %45 ]
  %53 = phi <4 x i32> [ %84, %51 ], [ %46, %45 ]
  %54 = phi <4 x i32> [ %85, %51 ], [ zeroinitializer, %45 ]
  %55 = phi i64 [ %87, %51 ], [ %37, %45 ]
  %56 = or i64 %52, 1
  %57 = getelementptr inbounds [20 x i32], [20 x i32]* %1, i64 0, i64 %56
  %58 = bitcast i32* %57 to <4 x i32>*
  %59 = load <4 x i32>, <4 x i32>* %58, align 4, !tbaa !5
  %60 = getelementptr inbounds i32, i32* %57, i64 4
  %61 = bitcast i32* %60 to <4 x i32>*
  %62 = load <4 x i32>, <4 x i32>* %61, align 4, !tbaa !5
  %63 = shl <4 x i32> %59, <i32 1, i32 1, i32 1, i32 1>
  %64 = shl <4 x i32> %62, <i32 1, i32 1, i32 1, i32 1>
  %65 = icmp eq <4 x i32> %48, %63
  %66 = icmp eq <4 x i32> %50, %64
  %67 = zext <4 x i1> %65 to <4 x i32>
  %68 = zext <4 x i1> %66 to <4 x i32>
  %69 = add <4 x i32> %53, %67
  %70 = add <4 x i32> %54, %68
  %71 = or i64 %52, 9
  %72 = getelementptr inbounds [20 x i32], [20 x i32]* %1, i64 0, i64 %71
  %73 = bitcast i32* %72 to <4 x i32>*
  %74 = load <4 x i32>, <4 x i32>* %73, align 4, !tbaa !5
  %75 = getelementptr inbounds i32, i32* %72, i64 4
  %76 = bitcast i32* %75 to <4 x i32>*
  %77 = load <4 x i32>, <4 x i32>* %76, align 4, !tbaa !5
  %78 = shl <4 x i32> %74, <i32 1, i32 1, i32 1, i32 1>
  %79 = shl <4 x i32> %77, <i32 1, i32 1, i32 1, i32 1>
  %80 = icmp eq <4 x i32> %48, %78
  %81 = icmp eq <4 x i32> %50, %79
  %82 = zext <4 x i1> %80 to <4 x i32>
  %83 = zext <4 x i1> %81 to <4 x i32>
  %84 = add <4 x i32> %69, %82
  %85 = add <4 x i32> %70, %83
  %86 = add nuw i64 %52, 16
  %87 = add i64 %55, -2
  %88 = icmp eq i64 %87, 0
  br i1 %88, label %89, label %51, !llvm.loop !11

89:                                               ; preds = %51, %45
  %90 = phi <4 x i32> [ undef, %45 ], [ %84, %51 ]
  %91 = phi <4 x i32> [ undef, %45 ], [ %85, %51 ]
  %92 = phi i64 [ 0, %45 ], [ %86, %51 ]
  %93 = phi <4 x i32> [ %46, %45 ], [ %84, %51 ]
  %94 = phi <4 x i32> [ zeroinitializer, %45 ], [ %85, %51 ]
  br i1 %38, label %111, label %95

95:                                               ; preds = %89
  %96 = or i64 %92, 1
  %97 = getelementptr inbounds [20 x i32], [20 x i32]* %1, i64 0, i64 %96
  %98 = getelementptr inbounds i32, i32* %97, i64 4
  %99 = bitcast i32* %98 to <4 x i32>*
  %100 = load <4 x i32>, <4 x i32>* %99, align 4, !tbaa !5
  %101 = shl <4 x i32> %100, <i32 1, i32 1, i32 1, i32 1>
  %102 = icmp eq <4 x i32> %50, %101
  %103 = zext <4 x i1> %102 to <4 x i32>
  %104 = add <4 x i32> %94, %103
  %105 = bitcast i32* %97 to <4 x i32>*
  %106 = load <4 x i32>, <4 x i32>* %105, align 4, !tbaa !5
  %107 = shl <4 x i32> %106, <i32 1, i32 1, i32 1, i32 1>
  %108 = icmp eq <4 x i32> %48, %107
  %109 = zext <4 x i1> %108 to <4 x i32>
  %110 = add <4 x i32> %93, %109
  br label %111

111:                                              ; preds = %89, %95
  %112 = phi <4 x i32> [ %90, %89 ], [ %110, %95 ]
  %113 = phi <4 x i32> [ %91, %89 ], [ %104, %95 ]
  %114 = add <4 x i32> %113, %112
  %115 = call i32 @llvm.vector.reduce.add.v4i32(<4 x i32> %114)
  br i1 %39, label %130, label %116

116:                                              ; preds = %40, %111
  %117 = phi i64 [ 1, %40 ], [ %34, %111 ]
  %118 = phi i32 [ %42, %40 ], [ %115, %111 ]
  br label %119

119:                                              ; preds = %116, %119
  %120 = phi i64 [ %128, %119 ], [ %117, %116 ]
  %121 = phi i32 [ %127, %119 ], [ %118, %116 ]
  %122 = getelementptr inbounds [20 x i32], [20 x i32]* %1, i64 0, i64 %120
  %123 = load i32, i32* %122, align 4, !tbaa !5
  %124 = shl i32 %123, 1
  %125 = icmp eq i32 %44, %124
  %126 = zext i1 %125 to i32
  %127 = add nsw i32 %121, %126
  %128 = add nuw nsw i64 %120, 1
  %129 = icmp eq i64 %128, %27
  br i1 %129, label %130, label %119, !llvm.loop !13

130:                                              ; preds = %119, %111
  %131 = phi i32 [ %115, %111 ], [ %127, %119 ]
  %132 = add nuw nsw i64 %41, 1
  %133 = icmp eq i64 %132, %27
  br i1 %133, label %134, label %40, !llvm.loop !15

134:                                              ; preds = %130, %11, %21
  %135 = phi i32 [ 0, %21 ], [ 0, %11 ], [ %131, %130 ]
  %136 = call nonnull align 8 dereferenceable(8) %"class.std::basic_ostream"* @_ZNSolsEi(%"class.std::basic_ostream"* nonnull align 8 dereferenceable(8) @_ZSt4cout, i32 %135)
  %137 = bitcast %"class.std::basic_ostream"* %136 to i8**
  %138 = load i8*, i8** %137, align 8, !tbaa !16
  %139 = getelementptr i8, i8* %138, i64 -24
  %140 = bitcast i8* %139 to i64*
  %141 = load i64, i64* %140, align 8
  %142 = bitcast %"class.std::basic_ostream"* %136 to i8*
  %143 = add nsw i64 %141, 240
  %144 = getelementptr inbounds i8, i8* %142, i64 %143
  %145 = bitcast i8* %144 to %"class.std::ctype"**
  %146 = load %"class.std::ctype"*, %"class.std::ctype"** %145, align 8, !tbaa !18
  %147 = icmp eq %"class.std::ctype"* %146, null
  br i1 %147, label %148, label %149

148:                                              ; preds = %134
  call void @_ZSt16__throw_bad_castv() #9
  unreachable

149:                                              ; preds = %134
  %150 = getelementptr inbounds %"class.std::ctype", %"class.std::ctype"* %146, i64 0, i32 8
  %151 = load i8, i8* %150, align 8, !tbaa !22
  %152 = icmp eq i8 %151, 0
  br i1 %152, label %156, label %153

153:                                              ; preds = %149
  %154 = getelementptr inbounds %"class.std::ctype", %"class.std::ctype"* %146, i64 0, i32 9, i64 10
  %155 = load i8, i8* %154, align 1, !tbaa !24
  br label %162

156:                                              ; preds = %149
  call void @_ZNKSt5ctypeIcE13_M_widen_initEv(%"class.std::ctype"* nonnull align 8 dereferenceable(570) %146)
  %157 = bitcast %"class.std::ctype"* %146 to i8 (%"class.std::ctype"*, i8)***
  %158 = load i8 (%"class.std::ctype"*, i8)**, i8 (%"class.std::ctype"*, i8)*** %157, align 8, !tbaa !16
  %159 = getelementptr inbounds i8 (%"class.std::ctype"*, i8)*, i8 (%"class.std::ctype"*, i8)** %158, i64 6
  %160 = load i8 (%"class.std::ctype"*, i8)*, i8 (%"class.std::ctype"*, i8)** %159, align 8
  %161 = call signext i8 %160(%"class.std::ctype"* nonnull align 8 dereferenceable(570) %146, i8 signext 10)
  br label %162

162:                                              ; preds = %153, %156
  %163 = phi i8 [ %155, %153 ], [ %161, %156 ]
  %164 = call nonnull align 8 dereferenceable(8) %"class.std::basic_ostream"* @_ZNSo3putEc(%"class.std::basic_ostream"* nonnull align 8 dereferenceable(8) %136, i8 signext %163)
  %165 = call nonnull align 8 dereferenceable(8) %"class.std::basic_ostream"* @_ZNSo5flushEv(%"class.std::basic_ostream"* nonnull align 8 dereferenceable(8) %164)
  %166 = call i32 @_ZNSi4peekEv(%"class.std::basic_istream"* nonnull align 8 dereferenceable(16) @_ZSt3cin)
  %167 = icmp eq i32 %166, 45
  br i1 %167, label %168, label %7, !llvm.loop !25

168:                                              ; preds = %162, %0
  call void @llvm.lifetime.end.p0i8(i64 4, i8* nonnull %4) #8
  call void @llvm.lifetime.end.p0i8(i64 80, i8* nonnull %3) #8
  ret i32 0
}

; Function Attrs: argmemonly mustprogress nofree nosync nounwind willreturn
declare void @llvm.lifetime.start.p0i8(i64 immarg, i8* nocapture) #4

declare i32 @_ZNSi4peekEv(%"class.std::basic_istream"* nonnull align 8 dereferenceable(16)) local_unnamed_addr #0

declare nonnull align 8 dereferenceable(16) %"class.std::basic_istream"* @_ZNSirsERi(%"class.std::basic_istream"* nonnull align 8 dereferenceable(16), i32* nonnull align 4 dereferenceable(4)) local_unnamed_addr #0

declare i32 @_ZNSi3getEv(%"class.std::basic_istream"* nonnull align 8 dereferenceable(16)) local_unnamed_addr #0

declare nonnull align 8 dereferenceable(8) %"class.std::basic_ostream"* @_ZNSolsEi(%"class.std::basic_ostream"* nonnull align 8 dereferenceable(8), i32) local_unnamed_addr #0

; Function Attrs: argmemonly mustprogress nofree nosync nounwind willreturn
declare void @llvm.lifetime.end.p0i8(i64 immarg, i8* nocapture) #4

declare nonnull align 8 dereferenceable(8) %"class.std::basic_ostream"* @_ZNSo3putEc(%"class.std::basic_ostream"* nonnull align 8 dereferenceable(8), i8 signext) local_unnamed_addr #0

declare nonnull align 8 dereferenceable(8) %"class.std::basic_ostream"* @_ZNSo5flushEv(%"class.std::basic_ostream"* nonnull align 8 dereferenceable(8)) local_unnamed_addr #0

; Function Attrs: noreturn
declare void @_ZSt16__throw_bad_castv() local_unnamed_addr #5

declare void @_ZNKSt5ctypeIcE13_M_widen_initEv(%"class.std::ctype"* nonnull align 8 dereferenceable(570)) local_unnamed_addr #0

; Function Attrs: sspstrong uwtable
define internal void @_GLOBAL__sub_I_1287.cpp() #6 section ".text.startup" {
  tail call void @_ZNSt8ios_base4InitC1Ev(%"class.std::ios_base::Init"* nonnull align 1 dereferenceable(1) @_ZStL8__ioinit)
  %1 = tail call i32 @__cxa_atexit(void (i8*)* bitcast (void (%"class.std::ios_base::Init"*)* @_ZNSt8ios_base4InitD1Ev to void (i8*)*), i8* getelementptr inbounds (%"class.std::ios_base::Init", %"class.std::ios_base::Init"* @_ZStL8__ioinit, i64 0, i32 0), i8* nonnull @__dso_handle) #8
  ret void
}

; Function Attrs: nofree nosync nounwind readnone willreturn
declare i32 @llvm.vector.reduce.add.v4i32(<4 x i32>) #7


!llvm.module.flags = !{!0, !1, !2, !3}
!llvm.ident = !{!4}

!0 = !{i32 1, !"wchar_size", i32 4}
!1 = !{i32 7, !"PIC Level", i32 2}
!2 = !{i32 7, !"PIE Level", i32 2}
!3 = !{i32 7, !"uwtable", i32 1}
!4 = !{!"clang version 13.0.0"}
!5 = !{!6, !6, i64 0}
!6 = !{!"int", !7, i64 0}
!7 = !{!"omnipotent char", !8, i64 0}
!8 = !{!"Simple C++ TBAA"}
!9 = distinct !{!9, !10}
!10 = !{!"llvm.loop.mustprogress"}
!11 = distinct !{!11, !10, !12}
!12 = !{!"llvm.loop.isvectorized", i32 1}
!13 = distinct !{!13, !10, !14, !12}
!14 = !{!"llvm.loop.unroll.runtime.disable"}
!15 = distinct !{!15, !10}
!16 = !{!17, !17, i64 0}
!17 = !{!"vtable pointer", !8, i64 0}
!18 = !{!19, !20, i64 240}
!19 = !{!"_ZTSSt9basic_iosIcSt11char_traitsIcEE", !20, i64 216, !7, i64 224, !21, i64 225, !20, i64 232, !20, i64 240, !20, i64 248, !20, i64 256}
!20 = !{!"any pointer", !7, i64 0}
!21 = !{!"bool", !7, i64 0}
!22 = !{!23, !7, i64 56}
!23 = !{!"_ZTSSt5ctypeIcE", !20, i64 16, !21, i64 24, !20, i64 32, !20, i64 40, !20, i64 48, !7, i64 56, !7, i64 57, !7, i64 313, !7, i64 569}
!24 = !{!7, !7, i64 0}
!25 = distinct !{!25, !10}
